target datalayout = "e-m:e-p270:32:32-p271:32:32-p272:64:64-i64:64-i128:128-f80:128-n8:16:32:64-S128"
target triple = "x86_64-pc-linux-gnu"

%struct.quic_tserver_args_st = type { ptr, ptr, ptr, ptr, ptr, ptr, ptr, ptr, i64 }
%struct.quic_tserver_st = type { %struct.quic_tserver_args_st, ptr, ptr, ptr, ptr, ptr, ptr, ptr, i8 }

; Function Attrs: nounwind uwtable
define void @ossl_quic_tserver_set_msg_callback(ptr noundef %0, ptr noundef %1, ptr noundef %2) #0 {
  %4 = alloca ptr, align 8
  %5 = alloca ptr, align 8
  %6 = alloca ptr, align 8
  store ptr %0, ptr %4, align 8, !tbaa !10
  store ptr %1, ptr %5, align 8, !tbaa !25
  store ptr %2, ptr %6, align 8, !tbaa !25
  %7 = load ptr, ptr %4, align 8, !tbaa !10
  %8 = getelementptr inbounds nuw %struct.quic_tserver_st, ptr %7, i32 0, i32 4
  %9 = load ptr, ptr %8, align 8, !tbaa !52
  %10 = load ptr, ptr %5, align 8, !tbaa !25
  %11 = load ptr, ptr %4, align 8, !tbaa !10
  %12 = getelementptr inbounds nuw %struct.quic_tserver_st, ptr %11, i32 0, i32 1
  %13 = load ptr, ptr %12, align 8, !tbaa !55
  call void @ossl_quic_channel_set_msg_callback(ptr noundef %9, ptr noundef %10, ptr noundef %13)
  %14 = load ptr, ptr %4, align 8, !tbaa !10
  %15 = getelementptr inbounds nuw %struct.quic_tserver_st, ptr %14, i32 0, i32 4
  %16 = load ptr, ptr %15, align 8, !tbaa !52
  %17 = load ptr, ptr %6, align 8, !tbaa !25
  call void @ossl_quic_channel_set_msg_callback_arg(ptr noundef %16, ptr noundef %17)
  %18 = load ptr, ptr %4, align 8, !tbaa !10
  %19 = getelementptr inbounds nuw %struct.quic_tserver_st, ptr %18, i32 0, i32 7
  %20 = load ptr, ptr %19, align 8, !tbaa !39
  %21 = load ptr, ptr %5, align 8, !tbaa !25
  call void @SSL_set_msg_callback(ptr noundef %20, ptr noundef %21)
  %22 = load ptr, ptr %4, align 8, !tbaa !10
  %23 = getelementptr inbounds nuw %struct.quic_tserver_st, ptr %22, i32 0, i32 7
  %24 = load ptr, ptr %23, align 8, !tbaa !39
  %25 = load ptr, ptr %6, align 8, !tbaa !25
  %26 = call i64 @SSL_ctrl(ptr noundef %24, i32 noundef 16, i64 noundef 0, ptr noundef %25)
  ret void
}