; Function Attrs: nounwind uwtable
define void @ossl_quic_tserver_set_msg_callback(ptr noundef readonly captures(none) %0, ptr noundef %1, ptr noundef %2) local_unnamed_addr #0 {
  %4 = getelementptr inbounds nuw i8, ptr %0, i64 96
  %5 = load ptr, ptr %4, align 8, !tbaa !46
  %6 = getelementptr inbounds nuw i8, ptr %0, i64 72
  %7 = load ptr, ptr %6, align 8, !tbaa !49
  tail call void @ossl_quic_channel_set_msg_callback(ptr noundef %5, ptr noundef %1, ptr noundef %7) #6
  %8 = load ptr, ptr %4, align 8, !tbaa !46
  tail call void @ossl_quic_channel_set_msg_callback_arg(ptr noundef %8, ptr noundef %2) #6
  %9 = getelementptr inbounds nuw i8, ptr %0, i64 120
  %10 = load ptr, ptr %9, align 8, !tbaa !33
  tail call void @SSL_set_msg_callback(ptr noundef %10, ptr noundef %1) #6
  %11 = load ptr, ptr %9, align 8, !tbaa !33
  %12 = tail call i64 @SSL_ctrl(ptr noundef %11, i32 noundef 16, i64 noundef 0, ptr noundef %2) #6
  ret void
}